target datalayout = "e-m:e-p270:32:32-p271:32:32-p272:64:64-i64:64-i128:128-f80:128-n8:16:32:64-S128"
target triple = "x86_64-pc-linux-gnu"

%struct.sdshdr8 = type { i8, i8, i8, [0 x i8] }
%struct.sdshdr16 = type <{ i16, i16, i8, [0 x i8] }>
%struct.sdshdr32 = type <{ i32, i32, i8, [0 x i8] }>
%struct.sdshdr64 = type <{ i64, i64, i8, [0 x i8] }>

@UsersToLoad = dso_local global ptr null, align 8
@.str.95 = private unnamed_addr constant [5 x i8] c"user\00", align 1

; Function Attrs: inlinehint nounwind uwtable
define internal i64 @sdslen(ptr noundef %0) #11 {
  %2 = alloca i64, align 8
  %3 = alloca ptr, align 8
  %4 = alloca i8, align 1
  %5 = alloca i32, align 4
  store ptr %0, ptr %3, align 8, !tbaa !5
  call void @llvm.lifetime.start.p0(i64 1, ptr %4) #14
  %6 = load ptr, ptr %3, align 8, !tbaa !5
  %7 = getelementptr inbounds i8, ptr %6, i64 -1
  %8 = load i8, ptr %7, align 1, !tbaa !22
  store i8 %8, ptr %4, align 1, !tbaa !22
  %9 = load i8, ptr %4, align 1, !tbaa !22
  %10 = zext i8 %9 to i32
  %11 = and i32 %10, 7
  switch i32 %11, label %40 [
    i32 0, label %12
    i32 1, label %17
    i32 2, label %23
    i32 3, label %29
    i32 4, label %35
  ]

12:                                               ; preds = %1
  %13 = load i8, ptr %4, align 1, !tbaa !22
  %14 = zext i8 %13 to i32
  %15 = ashr i32 %14, 3
  %16 = sext i32 %15 to i64
  store i64 %16, ptr %2, align 8
  store i32 1, ptr %5, align 4
  br label %41

17:                                               ; preds = %1
  %18 = load ptr, ptr %3, align 8, !tbaa !5
  %19 = getelementptr inbounds i8, ptr %18, i64 -3
  %20 = getelementptr inbounds nuw %struct.sdshdr8, ptr %19, i32 0, i32 0
  %21 = load i8, ptr %20, align 1, !tbaa !22
  %22 = zext i8 %21 to i64
  store i64 %22, ptr %2, align 8
  store i32 1, ptr %5, align 4
  br label %41

23:                                               ; preds = %1
  %24 = load ptr, ptr %3, align 8, !tbaa !5
  %25 = getelementptr inbounds i8, ptr %24, i64 -5
  %26 = getelementptr inbounds nuw %struct.sdshdr16, ptr %25, i32 0, i32 0
  %27 = load i16, ptr %26, align 1, !tbaa !28
  %28 = zext i16 %27 to i64
  store i64 %28, ptr %2, align 8
  store i32 1, ptr %5, align 4
  br label %41

29:                                               ; preds = %1
  %30 = load ptr, ptr %3, align 8, !tbaa !5
  %31 = getelementptr inbounds i8, ptr %30, i64 -9
  %32 = getelementptr inbounds nuw %struct.sdshdr32, ptr %31, i32 0, i32 0
  %33 = load i32, ptr %32, align 1, !tbaa !17
  %34 = zext i32 %33 to i64
  store i64 %34, ptr %2, align 8
  store i32 1, ptr %5, align 4
  br label %41

35:                                               ; preds = %1
  %36 = load ptr, ptr %3, align 8, !tbaa !5
  %37 = getelementptr inbounds i8, ptr %36, i64 -17
  %38 = getelementptr inbounds nuw %struct.sdshdr64, ptr %37, i32 0, i32 0
  %39 = load i64, ptr %38, align 1, !tbaa !10
  store i64 %39, ptr %2, align 8
  store i32 1, ptr %5, align 4
  br label %41

40:                                               ; preds = %1
  store i64 0, ptr %2, align 8
  store i32 1, ptr %5, align 4
  br label %41

41:                                               ; preds = %40, %35, %29, %23, %17, %12
  call void @llvm.lifetime.end.p0(i64 1, ptr %4) #14
  %42 = load i64, ptr %2, align 8
  ret i64 %42
}

; Function Attrs: nounwind uwtable
define dso_local i32 @ACLAppendUserForLoading(ptr noundef %0, i32 noundef %1, ptr noundef %2) #0 {
  %4 = alloca i32, align 4
  %5 = alloca ptr, align 8
  %6 = alloca i32, align 4
  %7 = alloca ptr, align 8
  %8 = alloca i32, align 4
  %9 = alloca ptr, align 8
  %10 = alloca i32, align 4
  %11 = alloca ptr, align 8
  %12 = alloca i32, align 4
  %13 = alloca i32, align 4
  %14 = alloca ptr, align 8
  %15 = alloca i32, align 4
  %16 = alloca i32, align 4
  store ptr %0, ptr %5, align 8, !tbaa !33
  store i32 %1, ptr %6, align 4, !tbaa !17
  store ptr %2, ptr %7, align 8, !tbaa !131
  %17 = load i32, ptr %6, align 4, !tbaa !17
  %18 = icmp slt i32 %17, 2
  br i1 %18, label %25, label %19

19:                                               ; preds = %3
  %20 = load ptr, ptr %5, align 8, !tbaa !33
  %21 = getelementptr inbounds ptr, ptr %20, i64 0
  %22 = load ptr, ptr %21, align 8, !tbaa !5
  %23 = call i32 @strcasecmp(ptr noundef %22, ptr noundef @.str.95) #17
  %24 = icmp ne i32 %23, 0
  br i1 %24, label %25, label %31

25:                                               ; preds = %19, %3
  %26 = load ptr, ptr %7, align 8, !tbaa !131
  %27 = icmp ne ptr %26, null
  br i1 %27, label %28, label %30

28:                                               ; preds = %25
  %29 = load ptr, ptr %7, align 8, !tbaa !131
  store i32 0, ptr %29, align 4, !tbaa !17
  br label %30

30:                                               ; preds = %28, %25
  store i32 -1, ptr %4, align 4
  br label %172

31:                                               ; preds = %19
  %32 = load ptr, ptr @UsersToLoad, align 8, !tbaa !150
  %33 = load ptr, ptr %5, align 8, !tbaa !33
  %34 = getelementptr inbounds ptr, ptr %33, i64 1
  %35 = load ptr, ptr %34, align 8, !tbaa !5
  %36 = call ptr @listSearchKey(ptr noundef %32, ptr noundef %35)
  %37 = icmp ne ptr %36, null
  br i1 %37, label %38, label %45

38:                                               ; preds = %31
  %39 = load ptr, ptr %7, align 8, !tbaa !131
  %40 = icmp ne ptr %39, null
  br i1 %40, label %41, label %43

41:                                               ; preds = %38
  %42 = load ptr, ptr %7, align 8, !tbaa !131
  store i32 1, ptr %42, align 4, !tbaa !17
  br label %43

43:                                               ; preds = %41, %38
  %44 = call ptr @__errno_location() #16
  store i32 114, ptr %44, align 4, !tbaa !17
  store i32 -1, ptr %4, align 4
  br label %172

45:                                               ; preds = %31
  call void @llvm.lifetime.start.p0(i64 4, ptr %8) #14
  call void @llvm.lifetime.start.p0(i64 8, ptr %9) #14
  %46 = load ptr, ptr %5, align 8, !tbaa !33
  %47 = getelementptr inbounds ptr, ptr %46, i64 2
  %48 = load i32, ptr %6, align 4, !tbaa !17
  %49 = sub nsw i32 %48, 2
  %50 = load ptr, ptr %7, align 8, !tbaa !131
  %51 = call ptr @ACLMergeSelectorArguments(ptr noundef %47, i32 noundef %49, ptr noundef %8, ptr noundef %50)
  store ptr %51, ptr %9, align 8, !tbaa !33
  %52 = load ptr, ptr %9, align 8, !tbaa !33
  %53 = icmp ne ptr %52, null
  br i1 %53, label %55, label %54

54:                                               ; preds = %45
  store i32 -1, ptr %4, align 4
  store i32 1, ptr %10, align 4
  br label %171

55:                                               ; preds = %45
  call void @llvm.lifetime.start.p0(i64 8, ptr %11) #14
  %56 = call ptr @ACLCreateUnlinkedUser()
  store ptr %56, ptr %11, align 8, !tbaa !32
  call void @llvm.lifetime.start.p0(i64 4, ptr %12) #14
  store i32 0, ptr %12, align 4, !tbaa !17
  br label %57

57:                                               ; preds = %107, %55
  %58 = load i32, ptr %12, align 4, !tbaa !17
  %59 = load i32, ptr %8, align 4, !tbaa !17
  %60 = icmp slt i32 %58, %59
  br i1 %60, label %62, label %61

61:                                               ; preds = %57
  store i32 2, ptr %10, align 4
  br label %110

62:                                               ; preds = %57
  %63 = load ptr, ptr %11, align 8, !tbaa !32
  %64 = load ptr, ptr %9, align 8, !tbaa !33
  %65 = load i32, ptr %12, align 4, !tbaa !17
  %66 = sext i32 %65 to i64
  %67 = getelementptr inbounds ptr, ptr %64, i64 %66
  %68 = load ptr, ptr %67, align 8, !tbaa !5
  %69 = load ptr, ptr %9, align 8, !tbaa !33
  %70 = load i32, ptr %12, align 4, !tbaa !17
  %71 = sext i32 %70 to i64
  %72 = getelementptr inbounds ptr, ptr %69, i64 %71
  %73 = load ptr, ptr %72, align 8, !tbaa !5
  %74 = call i64 @sdslen(ptr noundef %73)
  %75 = call i32 @ACLSetUser(ptr noundef %63, ptr noundef %68, i64 noundef %74)
  %76 = icmp eq i32 %75, -1
  br i1 %76, label %77, label %106

77:                                               ; preds = %62
  %78 = call ptr @__errno_location() #16
  %79 = load i32, ptr %78, align 4, !tbaa !17
  %80 = icmp ne i32 %79, 2
  br i1 %80, label %81, label %105

81:                                               ; preds = %77
  %82 = load ptr, ptr %11, align 8, !tbaa !32
  call void @ACLFreeUser(ptr noundef %82)
  %83 = load ptr, ptr %7, align 8, !tbaa !131
  %84 = icmp ne ptr %83, null
  br i1 %84, label %85, label %88

85:                                               ; preds = %81
  %86 = load i32, ptr %12, align 4, !tbaa !17
  %87 = load ptr, ptr %7, align 8, !tbaa !131
  store i32 %86, ptr %87, align 4, !tbaa !17
  br label %88

88:                                               ; preds = %85, %81
  call void @llvm.lifetime.start.p0(i64 4, ptr %13) #14
  store i32 0, ptr %13, align 4, !tbaa !17
  br label %89

89:                                               ; preds = %100, %88
  %90 = load i32, ptr %13, align 4, !tbaa !17
  %91 = load i32, ptr %8, align 4, !tbaa !17
  %92 = icmp slt i32 %90, %91
  br i1 %92, label %94, label %93

93:                                               ; preds = %89
  store i32 5, ptr %10, align 4
  call void @llvm.lifetime.end.p0(i64 4, ptr %13) #14
  br label %103

94:                                               ; preds = %89
  %95 = load ptr, ptr %9, align 8, !tbaa !33
  %96 = load i32, ptr %13, align 4, !tbaa !17
  %97 = sext i32 %96 to i64
  %98 = getelementptr inbounds ptr, ptr %95, i64 %97
  %99 = load ptr, ptr %98, align 8, !tbaa !5
  call void @sdsfree(ptr noundef %99)
  br label %100

100:                                              ; preds = %94
  %101 = load i32, ptr %13, align 4, !tbaa !17
  %102 = add nsw i32 %101, 1
  store i32 %102, ptr %13, align 4, !tbaa !17
  br label %89, !llvm.loop !213

103:                                              ; preds = %93
  %104 = load ptr, ptr %9, align 8, !tbaa !33
  call void @zfree(ptr noundef %104)
  store i32 -1, ptr %4, align 4
  store i32 1, ptr %10, align 4
  br label %110

105:                                              ; preds = %77
  br label %106

106:                                              ; preds = %105, %62
  br label %107

107:                                              ; preds = %106
  %108 = load i32, ptr %12, align 4, !tbaa !17
  %109 = add nsw i32 %108, 1
  store i32 %109, ptr %12, align 4, !tbaa !17
  br label %57, !llvm.loop !214

110:                                              ; preds = %103, %61
  call void @llvm.lifetime.end.p0(i64 4, ptr %12) #14
  %111 = load i32, ptr %10, align 4
  switch i32 %111, label %170 [
    i32 2, label %112
  ]

112:                                              ; preds = %110
  call void @llvm.lifetime.start.p0(i64 8, ptr %14) #14
  %113 = load i32, ptr %8, align 4, !tbaa !17
  %114 = add nsw i32 %113, 2
  %115 = sext i32 %114 to i64
  %116 = mul i64 8, %115
  %117 = call noalias ptr @zmalloc(i64 noundef %116) #13
  store ptr %117, ptr %14, align 8, !tbaa !33
  %118 = load ptr, ptr %5, align 8, !tbaa !33
  %119 = getelementptr inbounds ptr, ptr %118, i64 1
  %120 = load ptr, ptr %119, align 8, !tbaa !5
  %121 = call ptr @sdsdup(ptr noundef %120)
  %122 = load ptr, ptr %14, align 8, !tbaa !33
  %123 = getelementptr inbounds ptr, ptr %122, i64 0
  store ptr %121, ptr %123, align 8, !tbaa !5
  call void @llvm.lifetime.start.p0(i64 4, ptr %15) #14
  store i32 0, ptr %15, align 4, !tbaa !17
  br label %124

124:                                              ; preds = %141, %112
  %125 = load i32, ptr %15, align 4, !tbaa !17
  %126 = load i32, ptr %8, align 4, !tbaa !17
  %127 = icmp slt i32 %125, %126
  br i1 %127, label %129, label %128

128:                                              ; preds = %124
  store i32 8, ptr %10, align 4
  call void @llvm.lifetime.end.p0(i64 4, ptr %15) #14
  br label %144

129:                                              ; preds = %124
  %130 = load ptr, ptr %9, align 8, !tbaa !33
  %131 = load i32, ptr %15, align 4, !tbaa !17
  %132 = sext i32 %131 to i64
  %133 = getelementptr inbounds ptr, ptr %130, i64 %132
  %134 = load ptr, ptr %133, align 8, !tbaa !5
  %135 = call ptr @sdsdup(ptr noundef %134)
  %136 = load ptr, ptr %14, align 8, !tbaa !33
  %137 = load i32, ptr %15, align 4, !tbaa !17
  %138 = add nsw i32 %137, 1
  %139 = sext i32 %138 to i64
  %140 = getelementptr inbounds ptr, ptr %136, i64 %139
  store ptr %135, ptr %140, align 8, !tbaa !5
  br label %141

141:                                              ; preds = %129
  %142 = load i32, ptr %15, align 4, !tbaa !17
  %143 = add nsw i32 %142, 1
  store i32 %143, ptr %15, align 4, !tbaa !17
  br label %124, !llvm.loop !215

144:                                              ; preds = %128
  %145 = load ptr, ptr %14, align 8, !tbaa !33
  %146 = load i32, ptr %8, align 4, !tbaa !17
  %147 = add nsw i32 %146, 1
  %148 = sext i32 %147 to i64
  %149 = getelementptr inbounds ptr, ptr %145, i64 %148
  store ptr null, ptr %149, align 8, !tbaa !5
  %150 = load ptr, ptr @UsersToLoad, align 8, !tbaa !150
  %151 = load ptr, ptr %14, align 8, !tbaa !33
  %152 = call ptr @listAddNodeTail(ptr noundef %150, ptr noundef %151)
  %153 = load ptr, ptr %11, align 8, !tbaa !32
  call void @ACLFreeUser(ptr noundef %153)
  call void @llvm.lifetime.start.p0(i64 4, ptr %16) #14
  store i32 0, ptr %16, align 4, !tbaa !17
  br label %154

154:                                              ; preds = %165, %144
  %155 = load i32, ptr %16, align 4, !tbaa !17
  %156 = load i32, ptr %8, align 4, !tbaa !17
  %157 = icmp slt i32 %155, %156
  br i1 %157, label %159, label %158

158:                                              ; preds = %154
  store i32 11, ptr %10, align 4
  call void @llvm.lifetime.end.p0(i64 4, ptr %16) #14
  br label %168

159:                                              ; preds = %154
  %160 = load ptr, ptr %9, align 8, !tbaa !33
  %161 = load i32, ptr %16, align 4, !tbaa !17
  %162 = sext i32 %161 to i64
  %163 = getelementptr inbounds ptr, ptr %160, i64 %162
  %164 = load ptr, ptr %163, align 8, !tbaa !5
  call void @sdsfree(ptr noundef %164)
  br label %165

165:                                              ; preds = %159
  %166 = load i32, ptr %16, align 4, !tbaa !17
  %167 = add nsw i32 %166, 1
  store i32 %167, ptr %16, align 4, !tbaa !17
  br label %154, !llvm.loop !216

168:                                              ; preds = %158
  %169 = load ptr, ptr %9, align 8, !tbaa !33
  call void @zfree(ptr noundef %169)
  store i32 0, ptr %4, align 4
  store i32 1, ptr %10, align 4
  call void @llvm.lifetime.end.p0(i64 8, ptr %14) #14
  br label %170

170:                                              ; preds = %168, %110
  call void @llvm.lifetime.end.p0(i64 8, ptr %11) #14
  br label %171

171:                                              ; preds = %170, %54
  call void @llvm.lifetime.end.p0(i64 8, ptr %9) #14
  call void @llvm.lifetime.end.p0(i64 4, ptr %8) #14
  br label %172

172:                                              ; preds = %171, %43, %30
  %173 = load i32, ptr %4, align 4
  ret i32 %173
}