; Function Attrs: nounwind uwtable
define dso_local range(i32 -1, 1) i32 @ACLAppendUserForLoading(ptr noundef readonly captures(none) %0, i32 noundef %1, ptr noundef captures(address_is_null) %2) local_unnamed_addr #0 {
  %4 = alloca i32, align 4
  %5 = icmp slt i32 %1, 2
  br i1 %5, label %9, label %6

6:                                                ; preds = %3
  %7 = load ptr, ptr %0, align 8, !tbaa !29
  %8 = tail call i32 @strcasecmp(ptr noundef %7, ptr noundef nonnull @.str.95) #29
  %.not = icmp eq i32 %8, 0
  br i1 %.not, label %11, label %9

9:                                                ; preds = %6, %3
  %.not60 = icmp eq ptr %2, null
  br i1 %.not60, label %88, label %10

10:                                               ; preds = %9
  store i32 0, ptr %2, align 4, !tbaa !102
  br label %88

11:                                               ; preds = %6
  %12 = load ptr, ptr @UsersToLoad, align 8, !tbaa !142
  %13 = getelementptr inbounds nuw i8, ptr %0, i64 8
  %14 = load ptr, ptr %13, align 8, !tbaa !29
  %15 = tail call ptr @listSearchKey(ptr noundef %12, ptr noundef %14) #25
  %.not54 = icmp eq ptr %15, null
  br i1 %.not54, label %20, label %16

16:                                               ; preds = %11
  %.not59 = icmp eq ptr %2, null
  br i1 %.not59, label %18, label %17

17:                                               ; preds = %16
  store i32 1, ptr %2, align 4, !tbaa !102
  br label %18

18:                                               ; preds = %17, %16
  %19 = tail call ptr @__errno_location() #28
  store i32 114, ptr %19, align 4, !tbaa !102
  br label %88

20:                                               ; preds = %11
  call void @llvm.lifetime.start.p0(i64 4, ptr nonnull %4) #25
  %21 = getelementptr inbounds nuw i8, ptr %0, i64 16
  %22 = add nsw i32 %1, -2
  %23 = call ptr @ACLMergeSelectorArguments(ptr noundef nonnull %21, i32 noundef %22, ptr noundef nonnull %4, ptr noundef %2)
  %.not55 = icmp eq ptr %23, null
  br i1 %.not55, label %87, label %24

24:                                               ; preds = %20
  %25 = tail call ptr @ACLCreateUnlinkedUser()
  %26 = load i32, ptr %4, align 4, !tbaa !102
  %.not5863 = icmp sgt i32 %26, 0
  br i1 %.not5863, label %.lr.ph.preheader, label %.critedge

.lr.ph.preheader:                                 ; preds = %24
  %wide.trip.count = zext nneg i32 %26 to i64
  br label %.lr.ph

.lr.ph:                                           ; preds = %.lr.ph.preheader, %61
  %indvars.iv = phi i64 [ 0, %.lr.ph.preheader ], [ %indvars.iv.next, %61 ]
  %27 = getelementptr inbounds nuw ptr, ptr %23, i64 %indvars.iv
  %28 = load ptr, ptr %27, align 8, !tbaa !29
  %29 = getelementptr inbounds i8, ptr %28, i64 -1
  %30 = load i8, ptr %29, align 1, !tbaa !19
  %31 = zext i8 %30 to i32
  %32 = and i32 %31, 7
  switch i32 %32, label %sdslen.exit [
    i32 0, label %33
    i32 1, label %36
    i32 2, label %40
    i32 3, label %44
    i32 4, label %48
  ]

33:                                               ; preds = %.lr.ph
  %34 = lshr i32 %31, 3
  %35 = zext nneg i32 %34 to i64
  br label %sdslen.exit

36:                                               ; preds = %.lr.ph
  %37 = getelementptr inbounds i8, ptr %28, i64 -3
  %38 = load i8, ptr %37, align 1, !tbaa !19
  %39 = zext i8 %38 to i64
  br label %sdslen.exit

40:                                               ; preds = %.lr.ph
  %41 = getelementptr inbounds i8, ptr %28, i64 -5
  %42 = load i16, ptr %41, align 1, !tbaa !26
  %43 = zext i16 %42 to i64
  br label %sdslen.exit

44:                                               ; preds = %.lr.ph
  %45 = getelementptr inbounds i8, ptr %28, i64 -9
  %46 = load i32, ptr %45, align 1, !tbaa !102
  %47 = zext i32 %46 to i64
  br label %sdslen.exit

48:                                               ; preds = %.lr.ph
  %49 = getelementptr inbounds i8, ptr %28, i64 -17
  %50 = load i64, ptr %49, align 1, !tbaa !5
  br label %sdslen.exit

sdslen.exit:                                      ; preds = %.lr.ph, %33, %36, %40, %44, %48
  %.0.i = phi i64 [ %50, %48 ], [ %47, %44 ], [ %43, %40 ], [ %39, %36 ], [ %35, %33 ], [ 0, %.lr.ph ]
  %51 = tail call i32 @ACLSetUser(ptr noundef %25, ptr noundef nonnull %28, i64 noundef %.0.i)
  %52 = icmp eq i32 %51, -1
  br i1 %52, label %53, label %61

53:                                               ; preds = %sdslen.exit
  %54 = tail call ptr @__errno_location() #28
  %55 = load i32, ptr %54, align 4, !tbaa !102
  %.not56 = icmp eq i32 %55, 2
  br i1 %.not56, label %61, label %56

56:                                               ; preds = %53
  tail call void @ACLFreeUser(ptr noundef %25)
  %.not57 = icmp eq ptr %2, null
  br i1 %.not57, label %.lr.ph72.preheader, label %57

57:                                               ; preds = %56
  %58 = trunc nuw nsw i64 %indvars.iv to i32
  store i32 %58, ptr %2, align 4, !tbaa !102
  br label %.lr.ph72.preheader

.lr.ph72.preheader:                               ; preds = %56, %57
  %smax = tail call i32 @llvm.smax.i32(i32 %26, i32 1)
  %wide.trip.count79 = zext nneg i32 %smax to i64
  br label %.lr.ph72

.lr.ph72:                                         ; preds = %.lr.ph72.preheader, %.lr.ph72
  %indvars.iv76 = phi i64 [ 0, %.lr.ph72.preheader ], [ %indvars.iv.next77, %.lr.ph72 ]
  %59 = getelementptr inbounds nuw ptr, ptr %23, i64 %indvars.iv76
  %60 = load ptr, ptr %59, align 8, !tbaa !29
  tail call void @sdsfree(ptr noundef %60) #25
  %indvars.iv.next77 = add nuw nsw i64 %indvars.iv76, 1
  %exitcond80.not = icmp eq i64 %indvars.iv.next77, %wide.trip.count79
  br i1 %exitcond80.not, label %.sink.split, label %.lr.ph72, !llvm.loop !203

61:                                               ; preds = %sdslen.exit, %53
  %indvars.iv.next = add nuw nsw i64 %indvars.iv, 1
  %exitcond.not = icmp eq i64 %indvars.iv.next, %wide.trip.count
  br i1 %exitcond.not, label %.critedge, label %.lr.ph, !llvm.loop !204

.critedge:                                        ; preds = %61, %24
  %62 = add nsw i32 %26, 2
  %63 = sext i32 %62 to i64
  %64 = shl nsw i64 %63, 3
  %65 = tail call noalias ptr @zmalloc(i64 noundef %64) #26
  %66 = load ptr, ptr %13, align 8, !tbaa !29
  %67 = tail call ptr @sdsdup(ptr noundef %66) #25
  store ptr %67, ptr %65, align 8, !tbaa !29
  br i1 %.not5863, label %.lr.ph66.preheader, label %._crit_edge

.lr.ph66.preheader:                               ; preds = %.critedge
  %wide.trip.count84 = zext nneg i32 %26 to i64
  br label %.lr.ph66

._crit_edge:                                      ; preds = %.lr.ph66, %.critedge
  %68 = sext i32 %26 to i64
  %69 = getelementptr ptr, ptr %65, i64 %68
  %70 = getelementptr i8, ptr %69, i64 8
  store ptr null, ptr %70, align 8, !tbaa !29
  %71 = load ptr, ptr @UsersToLoad, align 8, !tbaa !142
  %72 = tail call ptr @listAddNodeTail(ptr noundef %71, ptr noundef nonnull %65) #25
  %73 = load ptr, ptr %25, align 8, !tbaa !88
  tail call void @sdsfree(ptr noundef %73) #25
  %74 = getelementptr inbounds nuw i8, ptr %25, i64 32
  %75 = load ptr, ptr %74, align 8, !tbaa !91
  %.not.i = icmp eq ptr %75, null
  br i1 %.not.i, label %ACLFreeUser.exit, label %76

76:                                               ; preds = %._crit_edge
  tail call void @decrRefCount(ptr noundef nonnull %75) #25
  store ptr null, ptr %74, align 8, !tbaa !91
  br label %ACLFreeUser.exit

ACLFreeUser.exit:                                 ; preds = %._crit_edge, %76
  %77 = getelementptr inbounds nuw i8, ptr %25, i64 16
  %78 = load ptr, ptr %77, align 8, !tbaa !90
  tail call void @listRelease(ptr noundef %78) #25
  %79 = getelementptr inbounds nuw i8, ptr %25, i64 24
  %80 = load ptr, ptr %79, align 8, !tbaa !79
  tail call void @listRelease(ptr noundef %80) #25
  tail call void @zfree(ptr noundef nonnull %25) #25
  br i1 %.not5863, label %.lr.ph68.preheader, label %.sink.split

.lr.ph68.preheader:                               ; preds = %ACLFreeUser.exit
  %wide.trip.count89 = zext nneg i32 %26 to i64
  br label %.lr.ph68

.lr.ph66:                                         ; preds = %.lr.ph66.preheader, %.lr.ph66
  %indvars.iv81 = phi i64 [ 0, %.lr.ph66.preheader ], [ %indvars.iv.next82, %.lr.ph66 ]
  %81 = getelementptr inbounds nuw ptr, ptr %23, i64 %indvars.iv81
  %82 = load ptr, ptr %81, align 8, !tbaa !29
  %83 = tail call ptr @sdsdup(ptr noundef %82) #25
  %indvars.iv.next82 = add nuw nsw i64 %indvars.iv81, 1
  %84 = getelementptr inbounds nuw ptr, ptr %65, i64 %indvars.iv.next82
  store ptr %83, ptr %84, align 8, !tbaa !29
  %exitcond85.not = icmp eq i64 %indvars.iv.next82, %wide.trip.count84
  br i1 %exitcond85.not, label %._crit_edge, label %.lr.ph66, !llvm.loop !205

.lr.ph68:                                         ; preds = %.lr.ph68.preheader, %.lr.ph68
  %indvars.iv86 = phi i64 [ 0, %.lr.ph68.preheader ], [ %indvars.iv.next87, %.lr.ph68 ]
  %85 = getelementptr inbounds nuw ptr, ptr %23, i64 %indvars.iv86
  %86 = load ptr, ptr %85, align 8, !tbaa !29
  tail call void @sdsfree(ptr noundef %86) #25
  %indvars.iv.next87 = add nuw nsw i64 %indvars.iv86, 1
  %exitcond90.not = icmp eq i64 %indvars.iv.next87, %wide.trip.count89
  br i1 %exitcond90.not, label %.sink.split, label %.lr.ph68, !llvm.loop !206

.sink.split:                                      ; preds = %.lr.ph72, %.lr.ph68, %ACLFreeUser.exit
  %.1.ph = phi i32 [ 0, %ACLFreeUser.exit ], [ 0, %.lr.ph68 ], [ -1, %.lr.ph72 ]
  tail call void @zfree(ptr noundef nonnull %23) #25
  br label %87

87:                                               ; preds = %.sink.split, %20
  %.1 = phi i32 [ -1, %20 ], [ %.1.ph, %.sink.split ]
  call void @llvm.lifetime.end.p0(i64 4, ptr nonnull %4) #25
  br label %88

88:                                               ; preds = %9, %10, %87, %18
  %.045 = phi i32 [ -1, %18 ], [ %.1, %87 ], [ -1, %10 ], [ -1, %9 ]
  ret i32 %.045
}